; Function Attrs: mustprogress uwtable
define void @_ZN9grpc_core16LameClientFilterC2EN4absl12lts_202308026StatusE(ptr noundef nonnull align 8 dereferenceable(40) %this, ptr nocapture noundef %error) unnamed_addr #3 align 2 personality ptr @__gxx_personality_v0 {
entry:
  store ptr getelementptr inbounds ({ [8 x ptr] }, ptr @_ZTVN9grpc_core13ChannelFilterE, i64 0, i32 0, i64 2), ptr %this, align 8
  %event_engine_.i = getelementptr inbounds i8, ptr %this, i64 8
  tail call void @_ZN17grpc_event_engine12experimental21GetDefaultEventEngineEN9grpc_core14SourceLocationE(ptr nonnull sret(%"class.std::shared_ptr") align 8 %event_engine_.i, ptr nonnull @.str.9, i32 76)
  store ptr getelementptr inbounds ({ [8 x ptr] }, ptr @_ZTVN9grpc_core16LameClientFilterE, i64 0, i32 0, i64 2), ptr %this, align 8
  %error_ = getelementptr inbounds i8, ptr %this, i64 24
  %0 = load i64, ptr %error, align 8
  store i64 %0, ptr %error_, align 8
  store i64 54, ptr %error, align 8
  tail call void @llvm.experimental.noalias.scope.decl(metadata !4)
  %call.i1 = invoke noalias noundef nonnull dereferenceable(80) ptr @_Znwm(i64 noundef 80) #25
          to label %call.i.noexc unwind label %lpad

call.i.noexc:                                     ; preds = %entry
  invoke void @_ZN9grpc_core16LameClientFilter5StateC1Ev(ptr noundef nonnull align 8 dereferenceable(80) %call.i1)
          to label %invoke.cont unwind label %lpad.i, !noalias !4

lpad.i:                                           ; preds = %call.i.noexc
  %1 = landingpad { ptr, i32 }
          cleanup
  tail call void @_ZdlPv(ptr noundef nonnull %call.i1) #24, !noalias !4
  br label %lpad.body

invoke.cont:                                      ; preds = %call.i.noexc
  %state_ = getelementptr inbounds i8, ptr %this, i64 32
  store ptr %call.i1, ptr %state_, align 8, !alias.scope !4
  ret void

lpad:                                             ; preds = %entry
  %2 = landingpad { ptr, i32 }
          cleanup
  br label %lpad.body

lpad.body:                                        ; preds = %lpad.i, %lpad
  %eh.lpad-body = phi { ptr, i32 } [ %2, %lpad ], [ %1, %lpad.i ]
  tail call void @_ZN4absl12lts_202308026StatusD2Ev(ptr noundef nonnull align 8 dereferenceable(8) %error_) #22
  tail call void @_ZN9grpc_core13ChannelFilterD2Ev(ptr noundef nonnull align 8 dereferenceable(24) %this) #22
  resume { ptr, i32 } %eh.lpad-body
}